; Function Attrs: mustprogress uwtable
define void @_ZN32pxrInternal_v0_24__pxrReserved__14Plug_TaskArenaC2Ev(ptr nocapture noundef nonnull writeonly align 8 dereferenceable(8) %0) unnamed_addr #0 align 2 personality ptr @__gxx_personality_v0 {
  %2 = tail call noalias noundef nonnull dereferenceable(352) ptr @_Znwm(i64 noundef 352) #24
  invoke void @_ZN32pxrInternal_v0_24__pxrReserved__14WorkDispatcherC1Ev(ptr noundef nonnull align 8 dereferenceable(345) %2)
          to label %_ZN32pxrInternal_v0_24__pxrReserved__14Plug_TaskArena5_ImplC2Ev.exit unwind label %3

_ZN32pxrInternal_v0_24__pxrReserved__14Plug_TaskArena5_ImplC2Ev.exit: ; preds = %1
  store ptr %2, ptr %0, align 8
  ret void

3:                                                ; preds = %1
  %4 = landingpad { ptr, i32 }
          cleanup
  tail call void @_ZdlPvm(ptr noundef nonnull %2, i64 noundef 352) #25
  resume { ptr, i32 } %4
}